target datalayout = "e-m:e-p270:32:32-p271:32:32-p272:64:64-i64:64-i128:128-f80:128-n8:16:32:64-S128"
target triple = "x86_64-pc-linux-gnu"

%struct.PageHeaderData = type { %struct.PageXLogRecPtr, i16, i16, i16, i16, i16, i16, i32, [0 x %struct.ItemIdData] }
%struct.PageXLogRecPtr = type { i32, i32 }
%struct.ItemIdData = type { i32 }
%struct.IndexTupleData = type { %struct.ItemPointerData, i16 }
%struct.ItemPointerData = type { %struct.BlockIdData, i16 }
%struct.BlockIdData = type { i16, i16 }

; Function Attrs: inlinehint nounwind uwtable
define internal ptr @PageGetItem(ptr noundef %0, ptr noundef %1) #2 {
  %3 = alloca ptr, align 8
  %4 = alloca ptr, align 8
  store ptr %0, ptr %3, align 8
  store ptr %1, ptr %4, align 8
  %5 = load ptr, ptr %3, align 8
  %6 = load ptr, ptr %4, align 8
  %7 = load i32, ptr %6, align 4
  %8 = and i32 %7, 32767
  %9 = sext i32 %8 to i64
  %10 = getelementptr inbounds i8, ptr %5, i64 %9
  ret ptr %10
}

; Function Attrs: inlinehint nounwind uwtable
define internal ptr @PageGetItemId(ptr noundef %0, i16 noundef zeroext %1) #2 {
  %3 = alloca ptr, align 8
  %4 = alloca i16, align 2
  store ptr %0, ptr %3, align 8
  store i16 %1, ptr %4, align 2
  %5 = load ptr, ptr %3, align 8
  %6 = getelementptr inbounds nuw %struct.PageHeaderData, ptr %5, i32 0, i32 8
  %7 = load i16, ptr %4, align 2
  %8 = zext i16 %7 to i32
  %9 = sub i32 %8, 1
  %10 = sext i32 %9 to i64
  %11 = getelementptr inbounds [0 x %struct.ItemIdData], ptr %6, i64 0, i64 %10
  ret ptr %11
}

; Function Attrs: inlinehint nounwind uwtable
define internal i64 @IndexTupleSize(ptr noundef %0) #2 {
  %2 = alloca ptr, align 8
  store ptr %0, ptr %2, align 8
  %3 = load ptr, ptr %2, align 8
  %4 = getelementptr inbounds nuw %struct.IndexTupleData, ptr %3, i32 0, i32 1
  %5 = load i16, ptr %4, align 2
  %6 = zext i16 %5 to i32
  %7 = and i32 %6, 8191
  %8 = sext i32 %7 to i64
  ret i64 %8
}

; Function Attrs: nounwind uwtable
define dso_local zeroext i1 @gistnospace(ptr noundef %0, ptr noundef %1, i32 noundef %2, i16 noundef zeroext %3, i64 noundef %4) #0 {
  %6 = alloca ptr, align 8
  %7 = alloca ptr, align 8
  %8 = alloca i32, align 4
  %9 = alloca i16, align 2
  %10 = alloca i64, align 8
  %11 = alloca i32, align 4
  %12 = alloca i32, align 4
  %13 = alloca i32, align 4
  %14 = alloca ptr, align 8
  store ptr %0, ptr %6, align 8
  store ptr %1, ptr %7, align 8
  store i32 %2, ptr %8, align 4
  store i16 %3, ptr %9, align 2
  store i64 %4, ptr %10, align 8
  call void @llvm.lifetime.start.p0(i64 4, ptr %11) #8
  %15 = load i64, ptr %10, align 8
  %16 = trunc i64 %15 to i32
  store i32 %16, ptr %11, align 4
  call void @llvm.lifetime.start.p0(i64 4, ptr %12) #8
  store i32 0, ptr %12, align 4
  call void @llvm.lifetime.start.p0(i64 4, ptr %13) #8
  store i32 0, ptr %13, align 4
  br label %17

17:                                               ; preds = %33, %5
  %18 = load i32, ptr %13, align 4
  %19 = load i32, ptr %8, align 4
  %20 = icmp slt i32 %18, %19
  br i1 %20, label %21, label %36

21:                                               ; preds = %17
  %22 = load ptr, ptr %7, align 8
  %23 = load i32, ptr %13, align 4
  %24 = sext i32 %23 to i64
  %25 = getelementptr inbounds ptr, ptr %22, i64 %24
  %26 = load ptr, ptr %25, align 8
  %27 = call i64 @IndexTupleSize(ptr noundef %26)
  %28 = add i64 %27, 4
  %29 = load i32, ptr %11, align 4
  %30 = zext i32 %29 to i64
  %31 = add i64 %30, %28
  %32 = trunc i64 %31 to i32
  store i32 %32, ptr %11, align 4
  br label %33

33:                                               ; preds = %21
  %34 = load i32, ptr %13, align 4
  %35 = add i32 %34, 1
  store i32 %35, ptr %13, align 4
  br label %17, !llvm.loop !6

36:                                               ; preds = %17
  %37 = load i16, ptr %9, align 2
  %38 = zext i16 %37 to i32
  %39 = icmp ne i32 %38, 0
  br i1 %39, label %40, label %50

40:                                               ; preds = %36
  call void @llvm.lifetime.start.p0(i64 8, ptr %14) #8
  %41 = load ptr, ptr %6, align 8
  %42 = load ptr, ptr %6, align 8
  %43 = load i16, ptr %9, align 2
  %44 = call ptr @PageGetItemId(ptr noundef %42, i16 noundef zeroext %43)
  %45 = call ptr @PageGetItem(ptr noundef %41, ptr noundef %44)
  store ptr %45, ptr %14, align 8
  %46 = load ptr, ptr %14, align 8
  %47 = call i64 @IndexTupleSize(ptr noundef %46)
  %48 = add i64 %47, 4
  %49 = trunc i64 %48 to i32
  store i32 %49, ptr %12, align 4
  call void @llvm.lifetime.end.p0(i64 8, ptr %14) #8
  br label %50

50:                                               ; preds = %40, %36
  %51 = load ptr, ptr %6, align 8
  %52 = call i64 @PageGetFreeSpace(ptr noundef %51)
  %53 = load i32, ptr %12, align 4
  %54 = zext i32 %53 to i64
  %55 = add i64 %52, %54
  %56 = load i32, ptr %11, align 4
  %57 = zext i32 %56 to i64
  %58 = icmp ult i64 %55, %57
  call void @llvm.lifetime.end.p0(i64 4, ptr %13) #8
  call void @llvm.lifetime.end.p0(i64 4, ptr %12) #8
  call void @llvm.lifetime.end.p0(i64 4, ptr %11) #8
  ret i1 %58
}