; Function Attrs: nounwind uwtable
define dso_local zeroext i1 @gistnospace(ptr noundef %0, ptr noundef readonly captures(none) %1, i32 noundef %2, i16 noundef zeroext %3, i64 noundef %4) local_unnamed_addr #0 {
  %6 = icmp sgt i32 %2, 0
  br i1 %6, label %.lr.ph.preheader, label %._crit_edge

.lr.ph.preheader:                                 ; preds = %5
  %wide.trip.count = zext nneg i32 %2 to i64
  br label %.lr.ph

.lr.ph:                                           ; preds = %.lr.ph.preheader, %.lr.ph
  %indvars.iv = phi i64 [ 0, %.lr.ph.preheader ], [ %indvars.iv.next, %.lr.ph ]
  %.0.in20 = phi i64 [ %4, %.lr.ph.preheader ], [ %12, %.lr.ph ]
  %7 = getelementptr inbounds nuw ptr, ptr %1, i64 %indvars.iv
  %8 = load ptr, ptr %7, align 8
  %9 = getelementptr i8, ptr %8, i64 6
  %.val16 = load i16, ptr %9, align 2
  %10 = and i16 %.val16, 8191
  %narrow18 = add nuw nsw i16 %10, 4
  %11 = zext nneg i16 %narrow18 to i64
  %12 = add i64 %.0.in20, %11
  %indvars.iv.next = add nuw nsw i64 %indvars.iv, 1
  %exitcond.not = icmp eq i64 %indvars.iv.next, %wide.trip.count
  br i1 %exitcond.not, label %._crit_edge, label %.lr.ph, !llvm.loop !6

._crit_edge:                                      ; preds = %.lr.ph, %5
  %.0.in.lcssa = phi i64 [ %4, %5 ], [ %12, %.lr.ph ]
  %.not = icmp eq i16 %3, 0
  br i1 %.not, label %24, label %13

13:                                               ; preds = %._crit_edge
  %14 = getelementptr inbounds nuw i8, ptr %0, i64 24
  %15 = zext i16 %3 to i64
  %16 = add nsw i64 %15, -1
  %17 = getelementptr inbounds [0 x %struct.ItemIdData], ptr %14, i64 0, i64 %16
  %.val17 = load i32, ptr %17, align 4
  %18 = and i32 %.val17, 32767
  %19 = zext nneg i32 %18 to i64
  %20 = getelementptr inbounds nuw i8, ptr %0, i64 %19
  %21 = getelementptr i8, ptr %20, i64 6
  %.val = load i16, ptr %21, align 2
  %22 = and i16 %.val, 8191
  %narrow = add nuw nsw i16 %22, 4
  %23 = zext nneg i16 %narrow to i64
  br label %24

24:                                               ; preds = %13, %._crit_edge
  %.015 = phi i64 [ %23, %13 ], [ 0, %._crit_edge ]
  %25 = tail call i64 @PageGetFreeSpace(ptr noundef %0) #11
  %26 = add i64 %25, %.015
  %27 = and i64 %.0.in.lcssa, 4294967295
  %28 = icmp ult i64 %26, %27
  ret i1 %28
}